; Function Attrs: uwtable
define void @_ZTv0_n32_N5arrow2io16HdfsReadableFile5CloseEv(ptr noalias sret(%"class.arrow::Status") align 8 %agg.result, ptr nocapture noundef readonly %this) unnamed_addr #8 align 2 {
entry:
  %0 = load ptr, ptr %this, align 8
  %1 = getelementptr inbounds i8, ptr %0, i64 -32
  %2 = load i64, ptr %1, align 8
  %3 = getelementptr inbounds i8, ptr %this, i64 %2
  tail call void @llvm.experimental.noalias.scope.decl(metadata !16)
  %impl_.i = getelementptr inbounds i8, ptr %3, i64 24
  %4 = load ptr, ptr %impl_.i, align 8, !noalias !16
  tail call void @llvm.experimental.noalias.scope.decl(metadata !19)
  %is_open_.i.i = getelementptr inbounds i8, ptr %4, i64 96
  %5 = load i8, ptr %is_open_.i.i, align 8, !noalias !22
  %6 = and i8 %5, 1
  %tobool.not.i.i = icmp eq i8 %6, 0
  br i1 %tobool.not.i.i, label %if.end5.i.i, label %if.then.i.i

if.then.i.i:                                      ; preds = %entry
  store i8 0, ptr %is_open_.i.i, align 8, !noalias !22
  %driver_.i.i = getelementptr inbounds i8, ptr %4, i64 32
  %7 = load ptr, ptr %driver_.i.i, align 8, !noalias !22
  %fs_.i.i = getelementptr inbounds i8, ptr %4, i64 80
  %8 = load ptr, ptr %fs_.i.i, align 8, !noalias !22
  %file_.i.i = getelementptr inbounds i8, ptr %4, i64 88
  %9 = load ptr, ptr %file_.i.i, align 8, !noalias !22
  %call.i.i = tail call noundef i32 @_ZN5arrow2io8internal11LibHdfsShim9CloseFileEP13hdfs_internalP17hdfsFile_internal(ptr noundef nonnull align 8 dereferenceable(312) %7, ptr noundef %8, ptr noundef %9), !noalias !22
  %cmp.i.i = icmp eq i32 %call.i.i, -1
  br i1 %cmp.i.i, label %if.then3.i.i, label %if.end5.i.i

if.then3.i.i:                                     ; preds = %if.then.i.i
  %call4.i.i = tail call ptr @__errno_location() #23
  %10 = load i32, ptr %call4.i.i, align 4, !noalias !22
  tail call void @_ZN5arrow8internal15StatusFromErrnoIJRA6_KcRA10_S2_RA8_S2_EEENS_6StatusEiNS_10StatusCodeEDpOT_(ptr sret(%"class.arrow::Status") align 8 %agg.result, i32 noundef %10, i8 noundef signext 5, ptr noundef nonnull align 1 dereferenceable(6) @.str.2, ptr noundef nonnull align 1 dereferenceable(10) @.str.3, ptr noundef nonnull align 1 dereferenceable(8) @.str.4)
  br label %_ZN5arrow2io16HdfsReadableFile5CloseEv.exit

if.end5.i.i:                                      ; preds = %if.then.i.i, %entry
  store ptr null, ptr %agg.result, align 8, !alias.scope !23
  br label %_ZN5arrow2io16HdfsReadableFile5CloseEv.exit

_ZN5arrow2io16HdfsReadableFile5CloseEv.exit:      ; preds = %if.then3.i.i, %if.end5.i.i
  ret void
}